; Function Attrs: inlinehint nounwind uwtable
define internal fastcc zeroext i1 @lxb_html_tree_insertion_mode_in_body_pre_listing(ptr noundef %0, ptr noundef %1) unnamed_addr #3 {
  %3 = tail call ptr @lxb_html_tree_element_in_scope(ptr noundef %0, i64 noundef 145, i64 noundef 2, i32 noundef 32) #6
  %.not = icmp eq ptr %3, null
  br i1 %.not, label %5, label %4

4:                                                ; preds = %2
  tail call void @lxb_html_tree_close_p_element(ptr noundef %0, ptr noundef %1) #6
  br label %5

5:                                                ; preds = %4, %2
  %6 = tail call ptr @lxb_html_tree_insert_foreign_element(ptr noundef %0, ptr noundef %1, i64 noundef 2) #6
  %7 = icmp eq ptr %6, null
  br i1 %7, label %8, label %11

8:                                                ; preds = %5
  %9 = getelementptr inbounds nuw i8, ptr %0, i64 112
  store i32 2, ptr %9, align 8, !tbaa !22
  %10 = tail call zeroext i1 @lxb_html_tree_process_abort(ptr noundef %0) #6
  br label %16

11:                                               ; preds = %5
  %12 = getelementptr inbounds nuw i8, ptr %0, i64 88
  %13 = load ptr, ptr %12, align 8, !tbaa !17
  %14 = getelementptr inbounds nuw i8, ptr %0, i64 96
  store ptr %13, ptr %14, align 8, !tbaa !4
  store ptr @lxb_html_tree_insertion_mode_in_body_skip_new_line, ptr %12, align 8, !tbaa !17
  %15 = getelementptr inbounds nuw i8, ptr %0, i64 81
  store i8 0, ptr %15, align 1, !tbaa !25
  br label %16

16:                                               ; preds = %11, %8
  %.0 = phi i1 [ %10, %8 ], [ true, %11 ]
  ret i1 %.0
}